; Function Attrs: nounwind uwtable
define internal range(i32 -1, 1) i32 @H5D__single_idx_remove(ptr noundef readonly captures(none) %0, ptr readnone captures(none) %1) #4 {
  %3 = load i8, ptr @H5D_init_g, align 1, !tbaa !3, !range !7, !noundef !8
  %4 = trunc nuw i8 %3 to i1
  %5 = load i8, ptr @H5_libterm_g, align 1, !range !7
  %6 = trunc nuw i8 %5 to i1
  %7 = xor i1 %6, true
  %8 = select i1 %4, i1 true, i1 %7
  br i1 %8, label %9, label %36, !prof !9

9:                                                ; preds = %2
  %10 = getelementptr inbounds nuw i8, ptr %0, i64 16
  %11 = load ptr, ptr %10, align 8, !tbaa !23
  %12 = getelementptr inbounds nuw i8, ptr %11, i64 4
  %13 = load i8, ptr %12, align 4, !tbaa !24
  %14 = and i8 %13, 2
  %.not = icmp eq i8 %14, 0
  br i1 %.not, label %19, label %15

15:                                               ; preds = %9
  %16 = getelementptr inbounds nuw i8, ptr %0, i64 24
  %17 = load ptr, ptr %16, align 8, !tbaa !26
  %18 = getelementptr inbounds nuw i8, ptr %17, i64 24
  br label %21

19:                                               ; preds = %9
  %20 = getelementptr inbounds nuw i8, ptr %11, i64 148
  %.phi.trans.insert = getelementptr inbounds nuw i8, ptr %0, i64 24
  %.pre = load ptr, ptr %.phi.trans.insert, align 8, !tbaa !26
  br label %21

21:                                               ; preds = %19, %15
  %22 = phi ptr [ %17, %15 ], [ %.pre, %19 ]
  %.08.in.in = phi ptr [ %18, %15 ], [ %20, %19 ]
  %.08.in = load i32, ptr %.08.in.in, align 4, !tbaa !30
  %.08 = zext i32 %.08.in to i64
  %23 = load ptr, ptr %0, align 8, !tbaa !73
  %24 = getelementptr inbounds nuw i8, ptr %22, i64 8
  %25 = load i64, ptr %24, align 8, !tbaa !27
  %26 = tail call i32 @H5MF_xfree(ptr noundef %23, i32 noundef 3, i64 noundef %25, i64 noundef %.08) #11
  %27 = icmp slt i32 %26, 0
  br i1 %27, label %28, label %32

28:                                               ; preds = %21
  %29 = load i64, ptr @H5E_DATASET_g, align 8, !tbaa !67
  %30 = load i64, ptr @H5E_CANTFREE_g, align 8, !tbaa !67
  %31 = tail call i32 (ptr, ptr, i32, i64, i64, ptr, ...) @H5E_printf_stack(ptr noundef nonnull @.str, ptr noundef nonnull @__func__.H5D__single_idx_remove, i32 noundef 439, i64 noundef %29, i64 noundef %30, ptr noundef nonnull @.str.3) #11
  br label %36

32:                                               ; preds = %21
  %33 = getelementptr inbounds nuw i8, ptr %0, i64 24
  %34 = load ptr, ptr %33, align 8, !tbaa !26
  %35 = getelementptr inbounds nuw i8, ptr %34, i64 8
  store i64 -1, ptr %35, align 8, !tbaa !27
  br label %36

36:                                               ; preds = %28, %32, %2
  %.0 = phi i32 [ -1, %28 ], [ 0, %32 ], [ 0, %2 ]
  ret i32 %.0
}